target datalayout = "e-m:e-p270:32:32-p271:32:32-p272:64:64-i64:64-i128:128-f80:128-n8:16:32:64-S128"
target triple = "x86_64-pc-linux-gnu"

%struct.AVRational = type { i32, i32 }
%struct.Jpeg2000DecoderContext = type { ptr, ptr, %struct.GetByteContext, i32, i32, i32, i32, i32, i32, [4 x i8], [4 x i8], [4 x i8], i8, ptr, i32, %struct.GetByteContext, [4 x i32], [4 x i32], i32, i32, i32, [256 x i32], i8, [4 x i32], i32, i32, i32, i32, i32, %struct.AVRational, [4 x %struct.Jpeg2000CodingStyle], [4 x %struct.Jpeg2000QuantStyle], %struct.Jpeg2000POC, [4 x i8], i32, i32, ptr, %struct.Jpeg2000DSPContext, i8, i8, i8, i8, i8, i8, i32 }
%struct.GetByteContext = type { ptr, ptr, ptr }
%struct.Jpeg2000CodingStyle = type { i32, i32, i8, i8, i8, i8, i8, i8, i8, i8, [34 x i8], [34 x i8], i8 }
%struct.Jpeg2000QuantStyle = type { [99 x i8], [99 x i16], i8, i8 }
%struct.Jpeg2000POC = type { [32 x %struct.Jpeg2000POCEntry], i32, i32 }
%struct.Jpeg2000POCEntry = type { i16, i16, i16, i8, i8, i8 }
%struct.Jpeg2000DSPContext = type { [3 x ptr] }
%struct.Jpeg2000TgtNode = type { i8, i8, i8, ptr }

@.str.97 = private unnamed_addr constant [14 x i8] c"missing node\0A\00", align 1

; Function Attrs: alwaysinline nounwind uwtable
define internal i32 @bytestream_get_byte(ptr noundef %0) #4 {
  %2 = alloca ptr, align 8
  store ptr %0, ptr %2, align 8, !tbaa !122
  %3 = load ptr, ptr %2, align 8, !tbaa !122
  %4 = load ptr, ptr %3, align 8, !tbaa !70
  %5 = getelementptr inbounds i8, ptr %4, i64 1
  store ptr %5, ptr %3, align 8, !tbaa !70
  %6 = load ptr, ptr %2, align 8, !tbaa !122
  %7 = load ptr, ptr %6, align 8, !tbaa !70
  %8 = getelementptr inbounds i8, ptr %7, i64 -1
  %9 = getelementptr inbounds i8, ptr %8, i64 0
  %10 = load i8, ptr %9, align 1, !tbaa !89
  %11 = zext i8 %10 to i32
  ret i32 %11
}

; Function Attrs: alwaysinline nounwind uwtable
define internal i32 @bytestream2_peek_byteu(ptr noundef %0) #4 {
  %2 = alloca ptr, align 8
  store ptr %0, ptr %2, align 8, !tbaa !71
  %3 = load ptr, ptr %2, align 8, !tbaa !71
  %4 = getelementptr inbounds nuw %struct.GetByteContext, ptr %3, i32 0, i32 0
  %5 = load ptr, ptr %4, align 8, !tbaa !73
  %6 = getelementptr inbounds i8, ptr %5, i64 0
  %7 = load i8, ptr %6, align 1, !tbaa !89
  %8 = zext i8 %7 to i32
  ret i32 %8
}

; Function Attrs: alwaysinline nounwind uwtable
define internal i32 @bytestream2_get_byteu(ptr noundef %0) #4 {
  %2 = alloca ptr, align 8
  store ptr %0, ptr %2, align 8, !tbaa !71
  %3 = load ptr, ptr %2, align 8, !tbaa !71
  %4 = getelementptr inbounds nuw %struct.GetByteContext, ptr %3, i32 0, i32 0
  %5 = call i32 @bytestream_get_byte(ptr noundef %4)
  ret i32 %5
}

; Function Attrs: alwaysinline nounwind uwtable
define internal i32 @bytestream2_peek_byte(ptr noundef %0) #4 {
  %2 = alloca i32, align 4
  %3 = alloca ptr, align 8
  store ptr %0, ptr %3, align 8, !tbaa !71
  %4 = load ptr, ptr %3, align 8, !tbaa !71
  %5 = getelementptr inbounds nuw %struct.GetByteContext, ptr %4, i32 0, i32 1
  %6 = load ptr, ptr %5, align 8, !tbaa !75
  %7 = load ptr, ptr %3, align 8, !tbaa !71
  %8 = getelementptr inbounds nuw %struct.GetByteContext, ptr %7, i32 0, i32 0
  %9 = load ptr, ptr %8, align 8, !tbaa !73
  %10 = ptrtoint ptr %6 to i64
  %11 = ptrtoint ptr %9 to i64
  %12 = sub i64 %10, %11
  %13 = icmp slt i64 %12, 1
  br i1 %13, label %14, label %15

14:                                               ; preds = %1
  store i32 0, ptr %2, align 4
  br label %18

15:                                               ; preds = %1
  %16 = load ptr, ptr %3, align 8, !tbaa !71
  %17 = call i32 @bytestream2_peek_byteu(ptr noundef %16)
  store i32 %17, ptr %2, align 4
  br label %18

18:                                               ; preds = %15, %14
  %19 = load i32, ptr %2, align 4
  ret i32 %19
}

; Function Attrs: alwaysinline nounwind uwtable
define internal i32 @bytestream2_get_byte(ptr noundef %0) #4 {
  %2 = alloca i32, align 4
  %3 = alloca ptr, align 8
  store ptr %0, ptr %3, align 8, !tbaa !71
  %4 = load ptr, ptr %3, align 8, !tbaa !71
  %5 = getelementptr inbounds nuw %struct.GetByteContext, ptr %4, i32 0, i32 1
  %6 = load ptr, ptr %5, align 8, !tbaa !75
  %7 = load ptr, ptr %3, align 8, !tbaa !71
  %8 = getelementptr inbounds nuw %struct.GetByteContext, ptr %7, i32 0, i32 0
  %9 = load ptr, ptr %8, align 8, !tbaa !73
  %10 = ptrtoint ptr %6 to i64
  %11 = ptrtoint ptr %9 to i64
  %12 = sub i64 %10, %11
  %13 = icmp slt i64 %12, 1
  br i1 %13, label %14, label %20

14:                                               ; preds = %1
  %15 = load ptr, ptr %3, align 8, !tbaa !71
  %16 = getelementptr inbounds nuw %struct.GetByteContext, ptr %15, i32 0, i32 1
  %17 = load ptr, ptr %16, align 8, !tbaa !75
  %18 = load ptr, ptr %3, align 8, !tbaa !71
  %19 = getelementptr inbounds nuw %struct.GetByteContext, ptr %18, i32 0, i32 0
  store ptr %17, ptr %19, align 8, !tbaa !73
  store i32 0, ptr %2, align 4
  br label %23

20:                                               ; preds = %1
  %21 = load ptr, ptr %3, align 8, !tbaa !71
  %22 = call i32 @bytestream2_get_byteu(ptr noundef %21)
  store i32 %22, ptr %2, align 4
  br label %23

23:                                               ; preds = %20, %14
  %24 = load i32, ptr %2, align 4
  ret i32 %24
}

; Function Attrs: nounwind uwtable
define internal i32 @get_bits(ptr noundef %0, i32 noundef %1) #1 {
  %3 = alloca ptr, align 8
  %4 = alloca i32, align 4
  %5 = alloca i32, align 4
  store ptr %0, ptr %3, align 8, !tbaa !29
  store i32 %1, ptr %4, align 4, !tbaa !48
  call void @llvm.lifetime.start.p0(i64 4, ptr %5) #12
  store i32 0, ptr %5, align 4, !tbaa !48
  br label %6

6:                                                ; preds = %26, %2
  %7 = load i32, ptr %4, align 4, !tbaa !48
  %8 = add nsw i32 %7, -1
  store i32 %8, ptr %4, align 4, !tbaa !48
  %9 = icmp sge i32 %8, 0
  br i1 %9, label %10, label %41

10:                                               ; preds = %6
  %11 = load i32, ptr %5, align 4, !tbaa !48
  %12 = shl i32 %11, 1
  store i32 %12, ptr %5, align 4, !tbaa !48
  %13 = load ptr, ptr %3, align 8, !tbaa !29
  %14 = getelementptr inbounds nuw %struct.Jpeg2000DecoderContext, ptr %13, i32 0, i32 34
  %15 = load i32, ptr %14, align 8, !tbaa !194
  %16 = icmp eq i32 %15, 0
  br i1 %16, label %17, label %26

17:                                               ; preds = %10
  %18 = load ptr, ptr %3, align 8, !tbaa !29
  %19 = getelementptr inbounds nuw %struct.Jpeg2000DecoderContext, ptr %18, i32 0, i32 2
  %20 = call i32 @bytestream2_get_byte(ptr noundef %19)
  %21 = icmp ne i32 %20, 255
  %22 = zext i1 %21 to i32
  %23 = add nsw i32 7, %22
  %24 = load ptr, ptr %3, align 8, !tbaa !29
  %25 = getelementptr inbounds nuw %struct.Jpeg2000DecoderContext, ptr %24, i32 0, i32 34
  store i32 %23, ptr %25, align 8, !tbaa !194
  br label %26

26:                                               ; preds = %17, %10
  %27 = load ptr, ptr %3, align 8, !tbaa !29
  %28 = getelementptr inbounds nuw %struct.Jpeg2000DecoderContext, ptr %27, i32 0, i32 34
  %29 = load i32, ptr %28, align 8, !tbaa !194
  %30 = add nsw i32 %29, -1
  store i32 %30, ptr %28, align 8, !tbaa !194
  %31 = load ptr, ptr %3, align 8, !tbaa !29
  %32 = getelementptr inbounds nuw %struct.Jpeg2000DecoderContext, ptr %31, i32 0, i32 2
  %33 = call i32 @bytestream2_peek_byte(ptr noundef %32)
  %34 = load ptr, ptr %3, align 8, !tbaa !29
  %35 = getelementptr inbounds nuw %struct.Jpeg2000DecoderContext, ptr %34, i32 0, i32 34
  %36 = load i32, ptr %35, align 8, !tbaa !194
  %37 = lshr i32 %33, %36
  %38 = and i32 %37, 1
  %39 = load i32, ptr %5, align 4, !tbaa !48
  %40 = or i32 %39, %38
  store i32 %40, ptr %5, align 4, !tbaa !48
  br label %6, !llvm.loop !283

41:                                               ; preds = %6
  %42 = load i32, ptr %5, align 4, !tbaa !48
  call void @llvm.lifetime.end.p0(i64 4, ptr %5) #12
  ret i32 %42
}

; Function Attrs: nounwind uwtable
define internal i32 @tag_tree_decode(ptr noundef %0, ptr noundef %1, i32 noundef %2) #1 {
  %4 = alloca i32, align 4
  %5 = alloca ptr, align 8
  %6 = alloca ptr, align 8
  %7 = alloca i32, align 4
  %8 = alloca [30 x ptr], align 16
  %9 = alloca i32, align 4
  %10 = alloca i32, align 4
  %11 = alloca i32, align 4
  %12 = alloca i32, align 4
  store ptr %0, ptr %5, align 8, !tbaa !29
  store ptr %1, ptr %6, align 8, !tbaa !284
  store i32 %2, ptr %7, align 4, !tbaa !48
  call void @llvm.lifetime.start.p0(i64 240, ptr %8) #12
  call void @llvm.lifetime.start.p0(i64 4, ptr %9) #12
  store i32 -1, ptr %9, align 4, !tbaa !48
  call void @llvm.lifetime.start.p0(i64 4, ptr %10) #12
  store i32 0, ptr %10, align 4, !tbaa !48
  %13 = load ptr, ptr %6, align 8, !tbaa !284
  %14 = icmp ne ptr %13, null
  br i1 %14, label %19, label %15

15:                                               ; preds = %3
  %16 = load ptr, ptr %5, align 8, !tbaa !29
  %17 = getelementptr inbounds nuw %struct.Jpeg2000DecoderContext, ptr %16, i32 0, i32 1
  %18 = load ptr, ptr %17, align 8, !tbaa !43
  call void (ptr, i32, ptr, ...) @av_log(ptr noundef %18, i32 noundef 16, ptr noundef @.str.97)
  store i32 -1094995529, ptr %4, align 4
  store i32 1, ptr %11, align 4
  br label %126

19:                                               ; preds = %3
  br label %20

20:                                               ; preds = %31, %19
  %21 = load ptr, ptr %6, align 8, !tbaa !284
  %22 = icmp ne ptr %21, null
  br i1 %22, label %23, label %29

23:                                               ; preds = %20
  %24 = load ptr, ptr %6, align 8, !tbaa !284
  %25 = getelementptr inbounds nuw %struct.Jpeg2000TgtNode, ptr %24, i32 0, i32 2
  %26 = load i8, ptr %25, align 2, !tbaa !285
  %27 = icmp ne i8 %26, 0
  %28 = xor i1 %27, true
  br label %29

29:                                               ; preds = %23, %20
  %30 = phi i1 [ false, %20 ], [ %28, %23 ]
  br i1 %30, label %31, label %40

31:                                               ; preds = %29
  %32 = load ptr, ptr %6, align 8, !tbaa !284
  %33 = load i32, ptr %9, align 4, !tbaa !48
  %34 = add nsw i32 %33, 1
  store i32 %34, ptr %9, align 4, !tbaa !48
  %35 = sext i32 %34 to i64
  %36 = getelementptr inbounds [30 x ptr], ptr %8, i64 0, i64 %35
  store ptr %32, ptr %36, align 8, !tbaa !284
  %37 = load ptr, ptr %6, align 8, !tbaa !284
  %38 = getelementptr inbounds nuw %struct.Jpeg2000TgtNode, ptr %37, i32 0, i32 3
  %39 = load ptr, ptr %38, align 8, !tbaa !287
  store ptr %39, ptr %6, align 8, !tbaa !284
  br label %20, !llvm.loop !288

40:                                               ; preds = %29
  %41 = load ptr, ptr %6, align 8, !tbaa !284
  %42 = icmp ne ptr %41, null
  br i1 %42, label %43, label %48

43:                                               ; preds = %40
  %44 = load ptr, ptr %6, align 8, !tbaa !284
  %45 = getelementptr inbounds nuw %struct.Jpeg2000TgtNode, ptr %44, i32 0, i32 0
  %46 = load i8, ptr %45, align 8, !tbaa !289
  %47 = zext i8 %46 to i32
  store i32 %47, ptr %10, align 4, !tbaa !48
  br label %56

48:                                               ; preds = %40
  %49 = load i32, ptr %9, align 4, !tbaa !48
  %50 = sext i32 %49 to i64
  %51 = getelementptr inbounds [30 x ptr], ptr %8, i64 0, i64 %50
  %52 = load ptr, ptr %51, align 8, !tbaa !284
  %53 = getelementptr inbounds nuw %struct.Jpeg2000TgtNode, ptr %52, i32 0, i32 0
  %54 = load i8, ptr %53, align 8, !tbaa !289
  %55 = zext i8 %54 to i32
  store i32 %55, ptr %10, align 4, !tbaa !48
  br label %56

56:                                               ; preds = %48, %43
  br label %57

57:                                               ; preds = %114, %56
  %58 = load i32, ptr %10, align 4, !tbaa !48
  %59 = load i32, ptr %7, align 4, !tbaa !48
  %60 = icmp slt i32 %58, %59
  br i1 %60, label %61, label %64

61:                                               ; preds = %57
  %62 = load i32, ptr %9, align 4, !tbaa !48
  %63 = icmp sge i32 %62, 0
  br label %64

64:                                               ; preds = %61, %57
  %65 = phi i1 [ false, %57 ], [ %63, %61 ]
  br i1 %65, label %66, label %124

66:                                               ; preds = %64
  %67 = load i32, ptr %10, align 4, !tbaa !48
  %68 = load i32, ptr %9, align 4, !tbaa !48
  %69 = sext i32 %68 to i64
  %70 = getelementptr inbounds [30 x ptr], ptr %8, i64 0, i64 %69
  %71 = load ptr, ptr %70, align 8, !tbaa !284
  %72 = getelementptr inbounds nuw %struct.Jpeg2000TgtNode, ptr %71, i32 0, i32 0
  %73 = load i8, ptr %72, align 8, !tbaa !289
  %74 = zext i8 %73 to i32
  %75 = icmp slt i32 %67, %74
  br i1 %75, label %76, label %84

76:                                               ; preds = %66
  %77 = load i32, ptr %9, align 4, !tbaa !48
  %78 = sext i32 %77 to i64
  %79 = getelementptr inbounds [30 x ptr], ptr %8, i64 0, i64 %78
  %80 = load ptr, ptr %79, align 8, !tbaa !284
  %81 = getelementptr inbounds nuw %struct.Jpeg2000TgtNode, ptr %80, i32 0, i32 0
  %82 = load i8, ptr %81, align 8, !tbaa !289
  %83 = zext i8 %82 to i32
  store i32 %83, ptr %10, align 4, !tbaa !48
  br label %84

84:                                               ; preds = %76, %66
  br label %85

85:                                               ; preds = %113, %84
  %86 = load i32, ptr %10, align 4, !tbaa !48
  %87 = load i32, ptr %7, align 4, !tbaa !48
  %88 = icmp slt i32 %86, %87
  br i1 %88, label %89, label %114

89:                                               ; preds = %85
  call void @llvm.lifetime.start.p0(i64 4, ptr %12) #12
  %90 = load ptr, ptr %5, align 8, !tbaa !29
  %91 = call i32 @get_bits(ptr noundef %90, i32 noundef 1)
  store i32 %91, ptr %12, align 4, !tbaa !48
  %92 = icmp sgt i32 %91, 0
  br i1 %92, label %93, label %101

93:                                               ; preds = %89
  %94 = load i32, ptr %9, align 4, !tbaa !48
  %95 = sext i32 %94 to i64
  %96 = getelementptr inbounds [30 x ptr], ptr %8, i64 0, i64 %95
  %97 = load ptr, ptr %96, align 8, !tbaa !284
  %98 = getelementptr inbounds nuw %struct.Jpeg2000TgtNode, ptr %97, i32 0, i32 2
  %99 = load i8, ptr %98, align 2, !tbaa !285
  %100 = add i8 %99, 1
  store i8 %100, ptr %98, align 2, !tbaa !285
  store i32 7, ptr %11, align 4
  br label %111

101:                                              ; preds = %89
  %102 = load i32, ptr %12, align 4, !tbaa !48
  %103 = icmp ne i32 %102, 0
  br i1 %103, label %107, label %104

104:                                              ; preds = %101
  %105 = load i32, ptr %10, align 4, !tbaa !48
  %106 = add nsw i32 %105, 1
  store i32 %106, ptr %10, align 4, !tbaa !48
  br label %109

107:                                              ; preds = %101
  %108 = load i32, ptr %12, align 4, !tbaa !48
  store i32 %108, ptr %4, align 4
  store i32 1, ptr %11, align 4
  br label %111

109:                                              ; preds = %104
  br label %110

110:                                              ; preds = %109
  store i32 0, ptr %11, align 4
  br label %111

111:                                              ; preds = %110, %107, %93
  call void @llvm.lifetime.end.p0(i64 4, ptr %12) #12
  %112 = load i32, ptr %11, align 4
  switch i32 %112, label %126 [
    i32 0, label %113
    i32 7, label %114
  ]

113:                                              ; preds = %111
  br label %85, !llvm.loop !290

114:                                              ; preds = %111, %85
  %115 = load i32, ptr %10, align 4, !tbaa !48
  %116 = trunc i32 %115 to i8
  %117 = load i32, ptr %9, align 4, !tbaa !48
  %118 = sext i32 %117 to i64
  %119 = getelementptr inbounds [30 x ptr], ptr %8, i64 0, i64 %118
  %120 = load ptr, ptr %119, align 8, !tbaa !284
  %121 = getelementptr inbounds nuw %struct.Jpeg2000TgtNode, ptr %120, i32 0, i32 0
  store i8 %116, ptr %121, align 8, !tbaa !289
  %122 = load i32, ptr %9, align 4, !tbaa !48
  %123 = add nsw i32 %122, -1
  store i32 %123, ptr %9, align 4, !tbaa !48
  br label %57, !llvm.loop !291

124:                                              ; preds = %64
  %125 = load i32, ptr %10, align 4, !tbaa !48
  store i32 %125, ptr %4, align 4
  store i32 1, ptr %11, align 4
  br label %126

126:                                              ; preds = %124, %111, %15
  call void @llvm.lifetime.end.p0(i64 4, ptr %10) #12
  call void @llvm.lifetime.end.p0(i64 4, ptr %9) #12
  call void @llvm.lifetime.end.p0(i64 240, ptr %8) #12
  %127 = load i32, ptr %4, align 4
  ret i32 %127
}