; Function Attrs: nounwind uwtable
define internal fastcc i32 @tag_tree_decode(ptr noundef captures(none) %0, ptr noundef %1, i32 noundef range(i32 -2147483647, 256) %2) unnamed_addr #1 {
  %4 = alloca [30 x ptr], align 16
  call void @llvm.lifetime.start.p0(i64 240, ptr nonnull %4) #11
  %.not = icmp eq ptr %1, null
  br i1 %.not, label %5, label %.preheader

5:                                                ; preds = %3
  %6 = getelementptr inbounds nuw i8, ptr %0, i64 8
  %7 = load ptr, ptr %6, align 8, !tbaa !35
  tail call void (ptr, i32, ptr, ...) @av_log(ptr noundef %7, i32 noundef 16, ptr noundef nonnull @.str.97) #11
  br label %.thread

.preheader:                                       ; preds = %3, %10
  %indvars.iv = phi i64 [ %indvars.iv.next, %10 ], [ -1, %3 ]
  %.03661 = phi ptr [ %13, %10 ], [ %1, %3 ]
  %8 = getelementptr inbounds nuw i8, ptr %.03661, i64 2
  %9 = load i8, ptr %8, align 2, !tbaa !299
  %.not42 = icmp eq i8 %9, 0
  br i1 %.not42, label %10, label %.critedge

10:                                               ; preds = %.preheader
  %indvars.iv.next = add nsw i64 %indvars.iv, 1
  %11 = getelementptr inbounds [30 x ptr], ptr %4, i64 0, i64 %indvars.iv.next
  store ptr %.03661, ptr %11, align 8, !tbaa !301
  %12 = getelementptr inbounds nuw i8, ptr %.03661, i64 8
  %13 = load ptr, ptr %12, align 8, !tbaa !302
  %.not41 = icmp eq ptr %13, null
  br i1 %.not41, label %.critedge44, label %.preheader, !llvm.loop !303

.critedge44:                                      ; preds = %10
  %sext = shl i64 %indvars.iv.next, 32
  %14 = ashr exact i64 %sext, 32
  %15 = getelementptr inbounds [30 x ptr], ptr %4, i64 0, i64 %14
  %16 = load ptr, ptr %15, align 8, !tbaa !301
  br label %.critedge

.critedge:                                        ; preds = %.preheader, %.critedge44
  %.03459.in = phi i64 [ %indvars.iv.next, %.critedge44 ], [ %indvars.iv, %.preheader ]
  %.029.in.in = phi ptr [ %16, %.critedge44 ], [ %.03661, %.preheader ]
  %.029.in = load i8, ptr %.029.in.in, align 8, !tbaa !304
  %.029 = zext i8 %.029.in to i32
  %17 = icmp sgt i32 %2, %.029
  %18 = and i64 %.03459.in, 2147483648
  %19 = icmp eq i64 %18, 0
  %20 = and i1 %17, %19
  br i1 %20, label %.lr.ph69, label %.thread

.lr.ph69:                                         ; preds = %.critedge
  %21 = getelementptr inbounds nuw i8, ptr %0, i64 3120
  %22 = getelementptr inbounds nuw i8, ptr %0, i64 16
  %23 = getelementptr inbounds nuw i8, ptr %0, i64 24
  %24 = and i64 %.03459.in, 2147483647
  br label %25

25:                                               ; preds = %.lr.ph69, %.loopexit
  %indvars.iv83 = phi i64 [ %24, %.lr.ph69 ], [ %indvars.iv.next84, %.loopexit ]
  %.13068 = phi i32 [ %.029, %.lr.ph69 ], [ %.33256, %.loopexit ]
  %26 = getelementptr inbounds nuw [30 x ptr], ptr %4, i64 0, i64 %indvars.iv83
  %27 = load ptr, ptr %26, align 8, !tbaa !301
  %28 = load i8, ptr %27, align 8, !tbaa !304
  %29 = zext i8 %28 to i32
  %spec.select = tail call i32 @llvm.smax.i32(i32 %.13068, i32 %29)
  %30 = icmp slt i32 %spec.select, %2
  br i1 %30, label %.lr.ph, label %.loopexit

.lr.ph:                                           ; preds = %25
  %31 = load ptr, ptr %23, align 8, !tbaa !41
  %32 = ptrtoint ptr %31 to i64
  %.promoted = load i32, ptr %21, align 8, !tbaa !123
  %.promoted64 = load ptr, ptr %22, align 8, !tbaa !43
  br label %33

33:                                               ; preds = %.lr.ph, %58
  %34 = phi ptr [ %.promoted64, %.lr.ph ], [ %44, %58 ]
  %35 = phi i32 [ %.promoted, %.lr.ph ], [ %46, %58 ]
  %.33263 = phi i32 [ %spec.select, %.lr.ph ], [ %59, %58 ]
  %36 = icmp eq i32 %35, 0
  br i1 %36, label %37, label %43

37:                                               ; preds = %33
  %38 = ptrtoint ptr %34 to i64
  %39 = sub i64 %32, %38
  %40 = icmp slt i64 %39, 1
  br i1 %40, label %bytestream2_get_byte.exit.thread.i, label %bytestream2_get_byte.exit.i

bytestream2_get_byte.exit.thread.i:               ; preds = %37
  store ptr %31, ptr %22, align 8, !tbaa !39
  br label %43

bytestream2_get_byte.exit.i:                      ; preds = %37
  %41 = getelementptr inbounds nuw i8, ptr %34, i64 1
  store ptr %41, ptr %22, align 8, !tbaa !43
  %42 = load i8, ptr %34, align 1, !tbaa !44
  %.fr.i = freeze i8 %42
  %.not.i = icmp eq i8 %.fr.i, -1
  %spec.select.i = select i1 %.not.i, i32 7, i32 8
  br label %43

43:                                               ; preds = %bytestream2_get_byte.exit.i, %bytestream2_get_byte.exit.thread.i, %33
  %44 = phi ptr [ %34, %33 ], [ %31, %bytestream2_get_byte.exit.thread.i ], [ %41, %bytestream2_get_byte.exit.i ]
  %45 = phi i32 [ %35, %33 ], [ 8, %bytestream2_get_byte.exit.thread.i ], [ %spec.select.i, %bytestream2_get_byte.exit.i ]
  %46 = add nsw i32 %45, -1
  store i32 %46, ptr %21, align 8, !tbaa !123
  %47 = ptrtoint ptr %44 to i64
  %48 = sub i64 %32, %47
  %49 = icmp slt i64 %48, 1
  br i1 %49, label %bytestream2_peek_byte.exit.i, label %50

50:                                               ; preds = %43
  %51 = load i8, ptr %44, align 1, !tbaa !44
  %52 = zext i8 %51 to i32
  br label %bytestream2_peek_byte.exit.i

bytestream2_peek_byte.exit.i:                     ; preds = %50, %43
  %.0.i11.i = phi i32 [ %52, %50 ], [ 0, %43 ]
  %53 = shl nuw i32 1, %46
  %54 = and i32 %.0.i11.i, %53
  %.not86 = icmp eq i32 %54, 0
  br i1 %.not86, label %58, label %.thread48

.thread48:                                        ; preds = %bytestream2_peek_byte.exit.i
  %55 = getelementptr inbounds nuw i8, ptr %27, i64 2
  %56 = load i8, ptr %55, align 2, !tbaa !299
  %57 = add i8 %56, 1
  store i8 %57, ptr %55, align 2, !tbaa !299
  br label %.loopexit

58:                                               ; preds = %bytestream2_peek_byte.exit.i
  %59 = add nuw i32 %.33263, 1
  %exitcond.not = icmp eq i32 %59, %2
  br i1 %exitcond.not, label %.loopexit.thread, label %33

.loopexit.thread:                                 ; preds = %58
  %60 = trunc nuw i32 %2 to i8
  store i8 %60, ptr %27, align 8, !tbaa !304
  br label %.thread

.loopexit:                                        ; preds = %25, %.thread48
  %.33256 = phi i32 [ %.33263, %.thread48 ], [ %spec.select, %25 ]
  %61 = trunc nuw i32 %.33256 to i8
  store i8 %61, ptr %27, align 8, !tbaa !304
  %indvars.iv.next84 = add nsw i64 %indvars.iv83, -1
  %62 = icmp slt i32 %.33256, %2
  %63 = icmp sgt i64 %indvars.iv83, 0
  %64 = and i1 %62, %63
  br i1 %64, label %25, label %.thread, !llvm.loop !305

.thread:                                          ; preds = %.loopexit, %.loopexit.thread, %.critedge, %5
  %.0 = phi i32 [ -1094995529, %5 ], [ %.029, %.critedge ], [ %2, %.loopexit.thread ], [ %.33256, %.loopexit ]
  call void @llvm.lifetime.end.p0(i64 240, ptr nonnull %4) #11
  ret i32 %.0
}